; Function Attrs: mustprogress nofree norecurse nosync nounwind willreturn memory(argmem: read) uwtable
define noundef double @_ZNK10open_spiel14dots_and_boxes16DotsAndBoxesGame10MinUtilityEv(ptr nocapture noundef nonnull readonly align 8 dereferenceable(293) %0) unnamed_addr #7 align 2 {
  %2 = getelementptr inbounds nuw i8, ptr %0, i64 292
  %3 = load i8, ptr %2, align 4
  %4 = trunc i8 %3 to i1
  br i1 %4, label %5, label %13

5:                                                ; preds = %1
  %6 = getelementptr inbounds nuw i8, ptr %0, i64 280
  %7 = load i32, ptr %6, align 8
  %8 = getelementptr inbounds nuw i8, ptr %0, i64 284
  %9 = load i32, ptr %8, align 4
  %10 = mul i32 %7, %9
  %11 = sub i32 0, %10
  %12 = sitofp i32 %11 to double
  br label %13

13:                                               ; preds = %1, %5
  %.0 = phi double [ %12, %5 ], [ -1.000000e+00, %1 ]
  ret double %.0
}